target datalayout = "e-m:e-p270:32:32-p271:32:32-p272:64:64-i64:64-i128:128-f80:128-n8:16:32:64-S128"
target triple = "x86_64-pc-linux-gnu"

@.str.40 = private unnamed_addr constant [2 x i8] c"\0A\00", align 1
@.str.487 = private unnamed_addr constant [3 x i8] c"%c\00", align 1

; Function Attrs: nounwind uwtable
define internal i32 @vba_callback(ptr noundef %0, i64 noundef %1, ptr noundef %2) #0 {
  %4 = alloca i32, align 4
  %5 = alloca ptr, align 8
  %6 = alloca i64, align 8
  %7 = alloca ptr, align 8
  %8 = alloca i64, align 8
  store ptr %0, ptr %5, align 8
  store i64 %1, ptr %6, align 8
  store ptr %2, ptr %7, align 8
  store i64 0, ptr %8, align 8
  %9 = load ptr, ptr %5, align 8
  %10 = icmp eq ptr null, %9
  br i1 %10, label %11, label %12

11:                                               ; preds = %3
  store i32 -1, ptr %4, align 4
  br label %37

12:                                               ; preds = %3
  store i64 0, ptr %8, align 8
  br label %13

13:                                               ; preds = %32, %12
  %14 = load i64, ptr %8, align 8
  %15 = load i64, ptr %6, align 8
  %16 = icmp ult i64 %14, %15
  br i1 %16, label %17, label %35

17:                                               ; preds = %13
  %18 = load ptr, ptr %5, align 8
  %19 = load i64, ptr %8, align 8
  %20 = getelementptr inbounds i8, ptr %18, i64 %19
  %21 = load i8, ptr %20, align 1
  %22 = zext i8 %21 to i32
  %23 = icmp eq i32 13, %22
  br i1 %23, label %24, label %25

24:                                               ; preds = %17
  br label %32

25:                                               ; preds = %17
  %26 = load ptr, ptr %5, align 8
  %27 = load i64, ptr %8, align 8
  %28 = getelementptr inbounds i8, ptr %26, i64 %27
  %29 = load i8, ptr %28, align 1
  %30 = zext i8 %29 to i32
  %31 = call i32 (ptr, ...) @printf(ptr noundef @.str.487, i32 noundef %30)
  br label %32

32:                                               ; preds = %25, %24
  %33 = load i64, ptr %8, align 8
  %34 = add i64 %33, 1
  store i64 %34, ptr %8, align 8
  br label %13

35:                                               ; preds = %13
  %36 = call i32 (ptr, ...) @printf(ptr noundef @.str.40)
  store i32 0, ptr %4, align 4
  br label %37

37:                                               ; preds = %35, %11
  %38 = load i32, ptr %4, align 4
  ret i32 %38
}