; Function Attrs: nofree nounwind uwtable
define internal noundef i32 @vba_callback(ptr noundef readonly %0, i64 noundef %1, ptr nocapture readnone %2) #20 {
  %4 = icmp eq ptr %0, null
  br i1 %4, label %12, label %.preheader

.preheader:                                       ; preds = %3
  %.not = icmp eq i64 %1, 0
  br i1 %.not, label %._crit_edge, label %.lr.ph

.lr.ph:                                           ; preds = %.preheader, %10
  %.012 = phi i64 [ %11, %10 ], [ 0, %.preheader ]
  %5 = getelementptr inbounds i8, ptr %0, i64 %.012
  %6 = load i8, ptr %5, align 1
  %7 = icmp eq i8 %6, 13
  br i1 %7, label %10, label %8

8:                                                ; preds = %.lr.ph
  %9 = zext i8 %6 to i32
  %putchar11 = tail call i32 @putchar(i32 %9)
  br label %10

10:                                               ; preds = %.lr.ph, %8
  %11 = add nuw i64 %.012, 1
  %exitcond.not = icmp eq i64 %11, %1
  br i1 %exitcond.not, label %._crit_edge, label %.lr.ph

._crit_edge:                                      ; preds = %10, %.preheader
  %putchar = tail call i32 @putchar(i32 10)
  br label %12

12:                                               ; preds = %3, %._crit_edge
  %.08 = phi i32 [ 0, %._crit_edge ], [ -1, %3 ]
  ret i32 %.08
}